target datalayout = "e-m:e-p270:32:32-p271:32:32-p272:64:64-i64:64-i128:128-f80:128-n8:16:32:64-S128"
target triple = "x86_64-pc-linux-gnu"

%struct.H5L_trav_le_t = type { ptr, ptr }

@.str = private unnamed_addr constant [100 x i8] c"generated/home/dtcxzyw/WorkSpace/Projects/compilers/llvm-opt-benchmark/bench/hdf5/hdf5/src/H5Lint.c\00", align 1
@H5E_LINK_g = external global i64, align 8
@.str.14 = private unnamed_addr constant [19 x i8] c"link doesn't exist\00", align 1
@.str.21 = private unnamed_addr constant [2 x i8] c"/\00", align 1
@__func__.H5L__exists = private unnamed_addr constant [12 x i8] c"H5L__exists\00", align 1
@H5E_EXISTS_g = external global i64, align 8

; Function Attrs: nounwind uwtable
define i32 @H5L__exists(ptr noundef %0, ptr noundef %1, ptr noundef %2) #0 {
  %4 = alloca ptr, align 8
  %5 = alloca ptr, align 8
  %6 = alloca ptr, align 8
  %7 = alloca %struct.H5L_trav_le_t, align 8
  %8 = alloca i32, align 4
  %9 = alloca i8, align 1
  store ptr %0, ptr %4, align 8
  store ptr %1, ptr %5, align 8
  store ptr %2, ptr %6, align 8
  store i32 0, ptr %8, align 4
  store i8 0, ptr %9, align 1
  %10 = load ptr, ptr %5, align 8
  %11 = call i32 @strcmp(ptr noundef %10, ptr noundef @.str.21) #8
  %12 = icmp eq i32 0, %11
  br i1 %12, label %13, label %15

13:                                               ; preds = %3
  %14 = load ptr, ptr %6, align 8
  store i8 1, ptr %14, align 1
  br label %38

15:                                               ; preds = %3
  %16 = load ptr, ptr %6, align 8
  %17 = getelementptr inbounds %struct.H5L_trav_le_t, ptr %7, i32 0, i32 1
  store ptr %16, ptr %17, align 8
  %18 = load ptr, ptr %4, align 8
  %19 = load ptr, ptr %5, align 8
  %20 = call i32 @H5G_traverse(ptr noundef %18, ptr noundef %19, i32 noundef 5, ptr noundef @H5L__exists_final_cb, ptr noundef %7)
  %21 = icmp slt i32 %20, 0
  br i1 %21, label %22, label %37

22:                                               ; preds = %15
  br label %23

23:                                               ; preds = %22
  br label %24

24:                                               ; preds = %23
  br label %25

25:                                               ; preds = %24
  %26 = load i64, ptr @H5E_LINK_g, align 8
  %27 = load i64, ptr @H5E_EXISTS_g, align 8
  %28 = call i32 (ptr, ptr, i32, i64, i64, ptr, ...) @H5E_printf_stack(ptr noundef @.str, ptr noundef @__func__.H5L__exists, i32 noundef 1754, i64 noundef %26, i64 noundef %27, ptr noundef @.str.14)
  br label %29

29:                                               ; preds = %25
  store i8 1, ptr %9, align 1
  %30 = load i8, ptr %9, align 1
  %31 = trunc i8 %30 to i1
  %32 = zext i1 %31 to i8
  store i8 %32, ptr %9, align 1
  br label %33

33:                                               ; preds = %29
  br label %34

34:                                               ; preds = %33
  store i32 -1, ptr %8, align 4
  br label %39

35:                                               ; No predecessors!
  br label %36

36:                                               ; preds = %35
  br label %37

37:                                               ; preds = %36, %15
  br label %38

38:                                               ; preds = %37, %13
  br label %39

39:                                               ; preds = %38, %34
  %40 = load i32, ptr %8, align 4
  ret i32 %40
}