; Function Attrs: nounwind uwtable
define range(i32 -1, 1) i32 @H5L__exists(ptr noundef %0, ptr noundef %1, ptr noundef %2) local_unnamed_addr #0 {
sub_0:
  %3 = alloca %struct.H5L_trav_le_t, align 8
  %4 = load i8, ptr %1, align 1
  %.not = icmp eq i8 %4, 47
  br i1 %.not, label %.tail, label %.tail.thread

.tail:                                            ; preds = %sub_0
  %5 = getelementptr inbounds i8, ptr %1, i64 1
  %6 = load i8, ptr %5, align 1
  %7 = icmp eq i8 %6, 0
  br i1 %7, label %8, label %.tail.thread

8:                                                ; preds = %.tail
  store i8 1, ptr %2, align 1
  br label %16

.tail.thread:                                     ; preds = %sub_0, %.tail
  %9 = getelementptr inbounds i8, ptr %3, i64 8
  store ptr %2, ptr %9, align 8
  %10 = call i32 @H5G_traverse(ptr noundef %0, ptr noundef nonnull %1, i32 noundef 5, ptr noundef nonnull @H5L__exists_final_cb, ptr noundef nonnull %3) #10
  %11 = icmp slt i32 %10, 0
  br i1 %11, label %12, label %16

12:                                               ; preds = %.tail.thread
  %13 = load i64, ptr @H5E_LINK_g, align 8
  %14 = load i64, ptr @H5E_EXISTS_g, align 8
  %15 = call i32 (ptr, ptr, i32, i64, i64, ptr, ...) @H5E_printf_stack(ptr noundef nonnull @.str, ptr noundef nonnull @__func__.H5L__exists, i32 noundef 1754, i64 noundef %13, i64 noundef %14, ptr noundef nonnull @.str.14) #10
  br label %16

16:                                               ; preds = %8, %.tail.thread, %12
  %.0 = phi i32 [ 0, %8 ], [ -1, %12 ], [ 0, %.tail.thread ]
  ret i32 %.0
}